target datalayout = "e-m:e-p270:32:32-p271:32:32-p272:64:64-i64:64-i128:128-f80:128-n8:16:32:64-S128"
target triple = "x86_64-pc-linux-gnu"

%struct.lv_style_t = type { ptr, i32, i8 }
%struct.lv_color_t = type { i8, i8, i8 }

@disp_size = internal global i32 0, align 4
@style_title = internal global %struct.lv_style_t zeroinitializer, align 8
@style_bullet = internal global %struct.lv_style_t zeroinitializer, align 8
@create_scale_box.grid_col_dsc = internal global [5 x i32] [i32 536870810, i32 536870812, i32 536870810, i32 536870819, i32 536870911], align 16
@create_scale_box.grid_row_dsc = internal global [7 x i32] [i32 536870810, i32 536870812, i32 536870810, i32 536870810, i32 536870810, i32 536870812, i32 536870911], align 16
@create_scale_box.grid_col_dsc.89 = internal global [3 x i32] [i32 536870810, i32 536870812, i32 536870911], align 4
@create_scale_box.grid_row_dsc.90 = internal global [6 x i32] [i32 536870810, i32 536870810, i32 536870810, i32 536870810, i32 536870810, i32 536870911], align 16

; Function Attrs: nounwind uwtable
define internal ptr @create_scale_box(ptr noundef %0, ptr noundef %1, ptr noundef %2, ptr noundef %3, ptr noundef %4) #0 {
  %6 = alloca ptr, align 8
  %7 = alloca ptr, align 8
  %8 = alloca ptr, align 8
  %9 = alloca ptr, align 8
  %10 = alloca ptr, align 8
  %11 = alloca ptr, align 8
  %12 = alloca ptr, align 8
  %13 = alloca ptr, align 8
  %14 = alloca ptr, align 8
  %15 = alloca %struct.lv_color_t, align 1
  %16 = alloca i24, align 4
  %17 = alloca ptr, align 8
  %18 = alloca ptr, align 8
  %19 = alloca %struct.lv_color_t, align 1
  %20 = alloca i24, align 4
  %21 = alloca ptr, align 8
  %22 = alloca ptr, align 8
  %23 = alloca %struct.lv_color_t, align 1
  %24 = alloca i24, align 4
  %25 = alloca ptr, align 8
  store ptr %0, ptr %6, align 8, !tbaa !7
  store ptr %1, ptr %7, align 8, !tbaa !7
  store ptr %2, ptr %8, align 8, !tbaa !7
  store ptr %3, ptr %9, align 8, !tbaa !7
  store ptr %4, ptr %10, align 8, !tbaa !7
  call void @llvm.lifetime.start.p0(i64 8, ptr %11) #5
  %26 = load ptr, ptr %6, align 8, !tbaa !7
  %27 = call ptr @lv_obj_create(ptr noundef %26)
  store ptr %27, ptr %11, align 8, !tbaa !7
  %28 = load ptr, ptr %11, align 8, !tbaa !7
  call void @lv_obj_set_height(ptr noundef %28, i32 noundef 1073741823)
  %29 = load ptr, ptr %11, align 8, !tbaa !7
  call void @lv_obj_set_flex_grow(ptr noundef %29, i8 noundef zeroext 1)
  call void @llvm.lifetime.start.p0(i64 8, ptr %12) #5
  %30 = load ptr, ptr %11, align 8, !tbaa !7
  %31 = call ptr @lv_label_create(ptr noundef %30)
  store ptr %31, ptr %12, align 8, !tbaa !7
  %32 = load ptr, ptr %12, align 8, !tbaa !7
  %33 = load ptr, ptr %7, align 8, !tbaa !7
  call void @lv_label_set_text_static(ptr noundef %32, ptr noundef %33)
  %34 = load ptr, ptr %12, align 8, !tbaa !7
  call void @lv_obj_add_style(ptr noundef %34, ptr noundef @style_title, i32 noundef 0)
  call void @llvm.lifetime.start.p0(i64 8, ptr %13) #5
  %35 = load ptr, ptr %11, align 8, !tbaa !7
  %36 = call ptr @lv_scale_create(ptr noundef %35)
  store ptr %36, ptr %13, align 8, !tbaa !7
  %37 = load ptr, ptr %13, align 8, !tbaa !7
  call void @lv_scale_set_mode(ptr noundef %37, i32 noundef 8)
  %38 = load ptr, ptr %13, align 8, !tbaa !7
  call void @lv_scale_set_post_draw(ptr noundef %38, i1 noundef zeroext true)
  %39 = load ptr, ptr %13, align 8, !tbaa !7
  call void @lv_obj_set_width(ptr noundef %39, i32 noundef 536871012)
  call void @llvm.lifetime.start.p0(i64 8, ptr %14) #5
  %40 = load ptr, ptr %11, align 8, !tbaa !7
  %41 = call ptr @lv_obj_create(ptr noundef %40)
  store ptr %41, ptr %14, align 8, !tbaa !7
  %42 = load ptr, ptr %14, align 8, !tbaa !7
  call void @lv_obj_set_size(ptr noundef %42, i32 noundef 13, i32 noundef 13)
  %43 = load ptr, ptr %14, align 8, !tbaa !7
  call void @lv_obj_remove_style(ptr noundef %43, ptr noundef null, i32 noundef 65536)
  %44 = load ptr, ptr %14, align 8, !tbaa !7
  call void @lv_obj_add_style(ptr noundef %44, ptr noundef @style_bullet, i32 noundef 0)
  %45 = load ptr, ptr %14, align 8, !tbaa !7
  %46 = call i24 @lv_palette_main(i32 noundef 0)
  store i24 %46, ptr %15, align 1
  call void @llvm.memcpy.p0.p0.i64(ptr align 4 %16, ptr align 1 %15, i64 3, i1 false)
  %47 = load i24, ptr %16, align 4
  call void @lv_obj_set_style_bg_color(ptr noundef %45, i24 %47, i32 noundef 0)
  call void @llvm.lifetime.start.p0(i64 8, ptr %17) #5
  %48 = load ptr, ptr %11, align 8, !tbaa !7
  %49 = call ptr @lv_label_create(ptr noundef %48)
  store ptr %49, ptr %17, align 8, !tbaa !7
  %50 = load ptr, ptr %17, align 8, !tbaa !7
  %51 = load ptr, ptr %8, align 8, !tbaa !7
  call void @lv_label_set_text_static(ptr noundef %50, ptr noundef %51)
  call void @llvm.lifetime.start.p0(i64 8, ptr %18) #5
  %52 = load ptr, ptr %11, align 8, !tbaa !7
  %53 = call ptr @lv_obj_create(ptr noundef %52)
  store ptr %53, ptr %18, align 8, !tbaa !7
  %54 = load ptr, ptr %18, align 8, !tbaa !7
  call void @lv_obj_set_size(ptr noundef %54, i32 noundef 13, i32 noundef 13)
  %55 = load ptr, ptr %18, align 8, !tbaa !7
  call void @lv_obj_remove_style(ptr noundef %55, ptr noundef null, i32 noundef 65536)
  %56 = load ptr, ptr %18, align 8, !tbaa !7
  call void @lv_obj_add_style(ptr noundef %56, ptr noundef @style_bullet, i32 noundef 0)
  %57 = load ptr, ptr %18, align 8, !tbaa !7
  %58 = call i24 @lv_palette_main(i32 noundef 5)
  store i24 %58, ptr %19, align 1
  call void @llvm.memcpy.p0.p0.i64(ptr align 4 %20, ptr align 1 %19, i64 3, i1 false)
  %59 = load i24, ptr %20, align 4
  call void @lv_obj_set_style_bg_color(ptr noundef %57, i24 %59, i32 noundef 0)
  call void @llvm.lifetime.start.p0(i64 8, ptr %21) #5
  %60 = load ptr, ptr %11, align 8, !tbaa !7
  %61 = call ptr @lv_label_create(ptr noundef %60)
  store ptr %61, ptr %21, align 8, !tbaa !7
  %62 = load ptr, ptr %21, align 8, !tbaa !7
  %63 = load ptr, ptr %9, align 8, !tbaa !7
  call void @lv_label_set_text_static(ptr noundef %62, ptr noundef %63)
  call void @llvm.lifetime.start.p0(i64 8, ptr %22) #5
  %64 = load ptr, ptr %11, align 8, !tbaa !7
  %65 = call ptr @lv_obj_create(ptr noundef %64)
  store ptr %65, ptr %22, align 8, !tbaa !7
  %66 = load ptr, ptr %22, align 8, !tbaa !7
  call void @lv_obj_set_size(ptr noundef %66, i32 noundef 13, i32 noundef 13)
  %67 = load ptr, ptr %22, align 8, !tbaa !7
  call void @lv_obj_remove_style(ptr noundef %67, ptr noundef null, i32 noundef 65536)
  %68 = load ptr, ptr %22, align 8, !tbaa !7
  call void @lv_obj_add_style(ptr noundef %68, ptr noundef @style_bullet, i32 noundef 0)
  %69 = load ptr, ptr %22, align 8, !tbaa !7
  %70 = call i24 @lv_palette_main(i32 noundef 9)
  store i24 %70, ptr %23, align 1
  call void @llvm.memcpy.p0.p0.i64(ptr align 4 %24, ptr align 1 %23, i64 3, i1 false)
  %71 = load i24, ptr %24, align 4
  call void @lv_obj_set_style_bg_color(ptr noundef %69, i24 %71, i32 noundef 0)
  call void @llvm.lifetime.start.p0(i64 8, ptr %25) #5
  %72 = load ptr, ptr %11, align 8, !tbaa !7
  %73 = call ptr @lv_label_create(ptr noundef %72)
  store ptr %73, ptr %25, align 8, !tbaa !7
  %74 = load ptr, ptr %25, align 8, !tbaa !7
  %75 = load ptr, ptr %10, align 8, !tbaa !7
  call void @lv_label_set_text_static(ptr noundef %74, ptr noundef %75)
  %76 = load i32, ptr @disp_size, align 4, !tbaa !3
  %77 = icmp eq i32 %76, 1
  br i1 %77, label %78, label %88

78:                                               ; preds = %5
  %79 = load ptr, ptr %11, align 8, !tbaa !7
  call void @lv_obj_set_grid_dsc_array(ptr noundef %79, ptr noundef @create_scale_box.grid_col_dsc, ptr noundef @create_scale_box.grid_row_dsc)
  %80 = load ptr, ptr %12, align 8, !tbaa !7
  call void @lv_obj_set_grid_cell(ptr noundef %80, i32 noundef 0, i32 noundef 0, i32 noundef 4, i32 noundef 0, i32 noundef 0, i32 noundef 1)
  %81 = load ptr, ptr %13, align 8, !tbaa !7
  call void @lv_obj_set_grid_cell(ptr noundef %81, i32 noundef 0, i32 noundef 0, i32 noundef 1, i32 noundef 0, i32 noundef 1, i32 noundef 3)
  %82 = load ptr, ptr %14, align 8, !tbaa !7
  call void @lv_obj_set_grid_cell(ptr noundef %82, i32 noundef 0, i32 noundef 2, i32 noundef 1, i32 noundef 1, i32 noundef 2, i32 noundef 1)
  %83 = load ptr, ptr %18, align 8, !tbaa !7
  call void @lv_obj_set_grid_cell(ptr noundef %83, i32 noundef 0, i32 noundef 2, i32 noundef 1, i32 noundef 1, i32 noundef 3, i32 noundef 1)
  %84 = load ptr, ptr %22, align 8, !tbaa !7
  call void @lv_obj_set_grid_cell(ptr noundef %84, i32 noundef 0, i32 noundef 2, i32 noundef 1, i32 noundef 1, i32 noundef 4, i32 noundef 1)
  %85 = load ptr, ptr %17, align 8, !tbaa !7
  call void @lv_obj_set_grid_cell(ptr noundef %85, i32 noundef 3, i32 noundef 3, i32 noundef 1, i32 noundef 1, i32 noundef 2, i32 noundef 1)
  %86 = load ptr, ptr %21, align 8, !tbaa !7
  call void @lv_obj_set_grid_cell(ptr noundef %86, i32 noundef 3, i32 noundef 3, i32 noundef 1, i32 noundef 1, i32 noundef 3, i32 noundef 1)
  %87 = load ptr, ptr %25, align 8, !tbaa !7
  call void @lv_obj_set_grid_cell(ptr noundef %87, i32 noundef 3, i32 noundef 3, i32 noundef 1, i32 noundef 1, i32 noundef 4, i32 noundef 1)
  br label %98

88:                                               ; preds = %5
  %89 = load ptr, ptr %11, align 8, !tbaa !7
  call void @lv_obj_set_grid_dsc_array(ptr noundef %89, ptr noundef @create_scale_box.grid_col_dsc.89, ptr noundef @create_scale_box.grid_row_dsc.90)
  %90 = load ptr, ptr %12, align 8, !tbaa !7
  call void @lv_obj_set_grid_cell(ptr noundef %90, i32 noundef 0, i32 noundef 0, i32 noundef 2, i32 noundef 0, i32 noundef 0, i32 noundef 1)
  %91 = load ptr, ptr %13, align 8, !tbaa !7
  call void @lv_obj_set_grid_cell(ptr noundef %91, i32 noundef 0, i32 noundef 0, i32 noundef 2, i32 noundef 0, i32 noundef 1, i32 noundef 1)
  %92 = load ptr, ptr %14, align 8, !tbaa !7
  call void @lv_obj_set_grid_cell(ptr noundef %92, i32 noundef 0, i32 noundef 0, i32 noundef 1, i32 noundef 0, i32 noundef 2, i32 noundef 1)
  %93 = load ptr, ptr %18, align 8, !tbaa !7
  call void @lv_obj_set_grid_cell(ptr noundef %93, i32 noundef 0, i32 noundef 0, i32 noundef 1, i32 noundef 0, i32 noundef 3, i32 noundef 1)
  %94 = load ptr, ptr %22, align 8, !tbaa !7
  call void @lv_obj_set_grid_cell(ptr noundef %94, i32 noundef 0, i32 noundef 0, i32 noundef 1, i32 noundef 0, i32 noundef 4, i32 noundef 1)
  %95 = load ptr, ptr %17, align 8, !tbaa !7
  call void @lv_obj_set_grid_cell(ptr noundef %95, i32 noundef 3, i32 noundef 1, i32 noundef 1, i32 noundef 0, i32 noundef 2, i32 noundef 1)
  %96 = load ptr, ptr %21, align 8, !tbaa !7
  call void @lv_obj_set_grid_cell(ptr noundef %96, i32 noundef 3, i32 noundef 1, i32 noundef 1, i32 noundef 0, i32 noundef 3, i32 noundef 1)
  %97 = load ptr, ptr %25, align 8, !tbaa !7
  call void @lv_obj_set_grid_cell(ptr noundef %97, i32 noundef 3, i32 noundef 1, i32 noundef 1, i32 noundef 0, i32 noundef 4, i32 noundef 1)
  br label %98

98:                                               ; preds = %88, %78
  %99 = load ptr, ptr %13, align 8, !tbaa !7
  call void @llvm.lifetime.end.p0(i64 8, ptr %25) #5
  call void @llvm.lifetime.end.p0(i64 8, ptr %22) #5
  call void @llvm.lifetime.end.p0(i64 8, ptr %21) #5
  call void @llvm.lifetime.end.p0(i64 8, ptr %18) #5
  call void @llvm.lifetime.end.p0(i64 8, ptr %17) #5
  call void @llvm.lifetime.end.p0(i64 8, ptr %14) #5
  call void @llvm.lifetime.end.p0(i64 8, ptr %13) #5
  call void @llvm.lifetime.end.p0(i64 8, ptr %12) #5
  call void @llvm.lifetime.end.p0(i64 8, ptr %11) #5
  ret ptr %99
}