; Function Attrs: nounwind uwtable
define internal fastcc noundef ptr @create_scale_box(ptr noundef %0, ptr noundef %1, ptr noundef %2, ptr noundef %3, ptr noundef %4) unnamed_addr #0 {
  %6 = tail call ptr @lv_obj_create(ptr noundef %0) #5
  tail call void @lv_obj_set_height(ptr noundef %6, i32 noundef 1073741823) #5
  tail call void @lv_obj_set_flex_grow(ptr noundef %6, i8 noundef zeroext 1) #5
  %7 = tail call ptr @lv_label_create(ptr noundef %6) #5
  tail call void @lv_label_set_text_static(ptr noundef %7, ptr noundef %1) #5
  tail call void @lv_obj_add_style(ptr noundef %7, ptr noundef nonnull @style_title, i32 noundef 0) #5
  %8 = tail call ptr @lv_scale_create(ptr noundef %6) #5
  tail call void @lv_scale_set_mode(ptr noundef %8, i32 noundef 8) #5
  tail call void @lv_scale_set_post_draw(ptr noundef %8, i1 noundef zeroext true) #5
  tail call void @lv_obj_set_width(ptr noundef %8, i32 noundef 536871012) #5
  %9 = tail call ptr @lv_obj_create(ptr noundef %6) #5
  tail call void @lv_obj_set_size(ptr noundef %9, i32 noundef 13, i32 noundef 13) #5
  tail call void @lv_obj_remove_style(ptr noundef %9, ptr noundef null, i32 noundef 65536) #5
  tail call void @lv_obj_add_style(ptr noundef %9, ptr noundef nonnull @style_bullet, i32 noundef 0) #5
  %10 = tail call i24 @lv_palette_main(i32 noundef 0) #5
  tail call void @lv_obj_set_style_bg_color(ptr noundef %9, i24 %10, i32 noundef 0) #5
  %11 = tail call ptr @lv_label_create(ptr noundef %6) #5
  tail call void @lv_label_set_text_static(ptr noundef %11, ptr noundef %2) #5
  %12 = tail call ptr @lv_obj_create(ptr noundef %6) #5
  tail call void @lv_obj_set_size(ptr noundef %12, i32 noundef 13, i32 noundef 13) #5
  tail call void @lv_obj_remove_style(ptr noundef %12, ptr noundef null, i32 noundef 65536) #5
  tail call void @lv_obj_add_style(ptr noundef %12, ptr noundef nonnull @style_bullet, i32 noundef 0) #5
  %13 = tail call i24 @lv_palette_main(i32 noundef 5) #5
  tail call void @lv_obj_set_style_bg_color(ptr noundef %12, i24 %13, i32 noundef 0) #5
  %14 = tail call ptr @lv_label_create(ptr noundef %6) #5
  tail call void @lv_label_set_text_static(ptr noundef %14, ptr noundef %3) #5
  %15 = tail call ptr @lv_obj_create(ptr noundef %6) #5
  tail call void @lv_obj_set_size(ptr noundef %15, i32 noundef 13, i32 noundef 13) #5
  tail call void @lv_obj_remove_style(ptr noundef %15, ptr noundef null, i32 noundef 65536) #5
  tail call void @lv_obj_add_style(ptr noundef %15, ptr noundef nonnull @style_bullet, i32 noundef 0) #5
  %16 = tail call i24 @lv_palette_main(i32 noundef 9) #5
  tail call void @lv_obj_set_style_bg_color(ptr noundef %15, i24 %16, i32 noundef 0) #5
  %17 = tail call ptr @lv_label_create(ptr noundef %6) #5
  tail call void @lv_label_set_text_static(ptr noundef %17, ptr noundef %4) #5
  %18 = load i32, ptr @disp_size, align 4, !tbaa !3
  %19 = icmp eq i32 %18, 1
  br i1 %19, label %20, label %21

20:                                               ; preds = %5
  tail call void @lv_obj_set_grid_dsc_array(ptr noundef %6, ptr noundef nonnull @create_scale_box.grid_col_dsc, ptr noundef nonnull @create_scale_box.grid_row_dsc) #5
  tail call void @lv_obj_set_grid_cell(ptr noundef %7, i32 noundef 0, i32 noundef 0, i32 noundef 4, i32 noundef 0, i32 noundef 0, i32 noundef 1) #5
  tail call void @lv_obj_set_grid_cell(ptr noundef %8, i32 noundef 0, i32 noundef 0, i32 noundef 1, i32 noundef 0, i32 noundef 1, i32 noundef 3) #5
  tail call void @lv_obj_set_grid_cell(ptr noundef %9, i32 noundef 0, i32 noundef 2, i32 noundef 1, i32 noundef 1, i32 noundef 2, i32 noundef 1) #5
  tail call void @lv_obj_set_grid_cell(ptr noundef %12, i32 noundef 0, i32 noundef 2, i32 noundef 1, i32 noundef 1, i32 noundef 3, i32 noundef 1) #5
  tail call void @lv_obj_set_grid_cell(ptr noundef %15, i32 noundef 0, i32 noundef 2, i32 noundef 1, i32 noundef 1, i32 noundef 4, i32 noundef 1) #5
  tail call void @lv_obj_set_grid_cell(ptr noundef %11, i32 noundef 3, i32 noundef 3, i32 noundef 1, i32 noundef 1, i32 noundef 2, i32 noundef 1) #5
  tail call void @lv_obj_set_grid_cell(ptr noundef %14, i32 noundef 3, i32 noundef 3, i32 noundef 1, i32 noundef 1, i32 noundef 3, i32 noundef 1) #5
  tail call void @lv_obj_set_grid_cell(ptr noundef %17, i32 noundef 3, i32 noundef 3, i32 noundef 1, i32 noundef 1, i32 noundef 4, i32 noundef 1) #5
  br label %22

21:                                               ; preds = %5
  tail call void @lv_obj_set_grid_dsc_array(ptr noundef %6, ptr noundef nonnull @create_scale_box.grid_col_dsc.89, ptr noundef nonnull @create_scale_box.grid_row_dsc.90) #5
  tail call void @lv_obj_set_grid_cell(ptr noundef %7, i32 noundef 0, i32 noundef 0, i32 noundef 2, i32 noundef 0, i32 noundef 0, i32 noundef 1) #5
  tail call void @lv_obj_set_grid_cell(ptr noundef %8, i32 noundef 0, i32 noundef 0, i32 noundef 2, i32 noundef 0, i32 noundef 1, i32 noundef 1) #5
  tail call void @lv_obj_set_grid_cell(ptr noundef %9, i32 noundef 0, i32 noundef 0, i32 noundef 1, i32 noundef 0, i32 noundef 2, i32 noundef 1) #5
  tail call void @lv_obj_set_grid_cell(ptr noundef %12, i32 noundef 0, i32 noundef 0, i32 noundef 1, i32 noundef 0, i32 noundef 3, i32 noundef 1) #5
  tail call void @lv_obj_set_grid_cell(ptr noundef %15, i32 noundef 0, i32 noundef 0, i32 noundef 1, i32 noundef 0, i32 noundef 4, i32 noundef 1) #5
  tail call void @lv_obj_set_grid_cell(ptr noundef %11, i32 noundef 3, i32 noundef 1, i32 noundef 1, i32 noundef 0, i32 noundef 2, i32 noundef 1) #5
  tail call void @lv_obj_set_grid_cell(ptr noundef %14, i32 noundef 3, i32 noundef 1, i32 noundef 1, i32 noundef 0, i32 noundef 3, i32 noundef 1) #5
  tail call void @lv_obj_set_grid_cell(ptr noundef %17, i32 noundef 3, i32 noundef 1, i32 noundef 1, i32 noundef 0, i32 noundef 4, i32 noundef 1) #5
  br label %22

22:                                               ; preds = %21, %20
  ret ptr %8
}